target datalayout = "e-m:e-p270:32:32-p271:32:32-p272:64:64-i64:64-i128:128-f80:128-n8:16:32:64-S128"
target triple = "x86_64-pc-linux-gnu"

%struct.fdt_header = type { i32, i32, i32, i32, i32, i32, i32, i32, i32, i32 }
%struct.fdt_property = type { i32, i32, i32, [0 x i8] }

; Function Attrs: inlinehint nounwind uwtable
define internal i32 @fdt32_ld(ptr noundef %0) #3 {
  %2 = alloca ptr, align 8
  %3 = alloca ptr, align 8
  store ptr %0, ptr %2, align 8, !tbaa !9
  call void @llvm.lifetime.start.p0(i64 8, ptr %3) #6
  %4 = load ptr, ptr %2, align 8, !tbaa !9
  store ptr %4, ptr %3, align 8, !tbaa !13
  %5 = load ptr, ptr %3, align 8, !tbaa !13
  %6 = getelementptr inbounds i8, ptr %5, i64 0
  %7 = load i8, ptr %6, align 1, !tbaa !15
  %8 = zext i8 %7 to i32
  %9 = shl i32 %8, 24
  %10 = load ptr, ptr %3, align 8, !tbaa !13
  %11 = getelementptr inbounds i8, ptr %10, i64 1
  %12 = load i8, ptr %11, align 1, !tbaa !15
  %13 = zext i8 %12 to i32
  %14 = shl i32 %13, 16
  %15 = or i32 %9, %14
  %16 = load ptr, ptr %3, align 8, !tbaa !13
  %17 = getelementptr inbounds i8, ptr %16, i64 2
  %18 = load i8, ptr %17, align 1, !tbaa !15
  %19 = zext i8 %18 to i32
  %20 = shl i32 %19, 8
  %21 = or i32 %15, %20
  %22 = load ptr, ptr %3, align 8, !tbaa !13
  %23 = getelementptr inbounds i8, ptr %22, i64 3
  %24 = load i8, ptr %23, align 1, !tbaa !15
  %25 = zext i8 %24 to i32
  %26 = or i32 %21, %25
  call void @llvm.lifetime.end.p0(i64 8, ptr %3) #6
  ret i32 %26
}

; Function Attrs: nounwind uwtable
define ptr @fdt_getprop_namelen(ptr noundef %0, i32 noundef %1, ptr noundef %2, i32 noundef %3, ptr noundef %4) #0 {
  %6 = alloca ptr, align 8
  %7 = alloca ptr, align 8
  %8 = alloca i32, align 4
  %9 = alloca ptr, align 8
  %10 = alloca i32, align 4
  %11 = alloca ptr, align 8
  %12 = alloca i32, align 4
  %13 = alloca ptr, align 8
  %14 = alloca i32, align 4
  store ptr %0, ptr %7, align 8, !tbaa !3
  store i32 %1, ptr %8, align 4, !tbaa !7
  store ptr %2, ptr %9, align 8, !tbaa !13
  store i32 %3, ptr %10, align 4, !tbaa !7
  store ptr %4, ptr %11, align 8, !tbaa !9
  call void @llvm.lifetime.start.p0(i64 4, ptr %12) #6
  call void @llvm.lifetime.start.p0(i64 8, ptr %13) #6
  %15 = load ptr, ptr %7, align 8, !tbaa !3
  %16 = load i32, ptr %8, align 4, !tbaa !7
  %17 = load ptr, ptr %9, align 8, !tbaa !13
  %18 = load i32, ptr %10, align 4, !tbaa !7
  %19 = load ptr, ptr %11, align 8, !tbaa !9
  %20 = call ptr @fdt_get_property_namelen_(ptr noundef %15, i32 noundef %16, ptr noundef %17, i32 noundef %18, ptr noundef %19, ptr noundef %12)
  store ptr %20, ptr %13, align 8, !tbaa !28
  %21 = load ptr, ptr %13, align 8, !tbaa !28
  %22 = icmp ne ptr %21, null
  br i1 %22, label %24, label %23

23:                                               ; preds = %5
  store ptr null, ptr %6, align 8
  store i32 1, ptr %14, align 4
  br label %49

24:                                               ; preds = %5
  %25 = load ptr, ptr %7, align 8, !tbaa !3
  %26 = getelementptr inbounds nuw %struct.fdt_header, ptr %25, i32 0, i32 5
  %27 = call i32 @fdt32_ld(ptr noundef %26)
  %28 = icmp ult i32 %27, 16
  br i1 %28, label %29, label %45

29:                                               ; preds = %24
  %30 = load i32, ptr %12, align 4, !tbaa !7
  %31 = sext i32 %30 to i64
  %32 = add i64 %31, 12
  %33 = urem i64 %32, 8
  %34 = icmp ne i64 %33, 0
  br i1 %34, label %35, label %45

35:                                               ; preds = %29
  %36 = load ptr, ptr %13, align 8, !tbaa !28
  %37 = getelementptr inbounds nuw %struct.fdt_property, ptr %36, i32 0, i32 1
  %38 = call i32 @fdt32_ld(ptr noundef %37)
  %39 = icmp uge i32 %38, 8
  br i1 %39, label %40, label %45

40:                                               ; preds = %35
  %41 = load ptr, ptr %13, align 8, !tbaa !28
  %42 = getelementptr inbounds nuw %struct.fdt_property, ptr %41, i32 0, i32 3
  %43 = getelementptr inbounds [0 x i8], ptr %42, i64 0, i64 0
  %44 = getelementptr inbounds i8, ptr %43, i64 4
  store ptr %44, ptr %6, align 8
  store i32 1, ptr %14, align 4
  br label %49

45:                                               ; preds = %35, %29, %24
  %46 = load ptr, ptr %13, align 8, !tbaa !28
  %47 = getelementptr inbounds nuw %struct.fdt_property, ptr %46, i32 0, i32 3
  %48 = getelementptr inbounds [0 x i8], ptr %47, i64 0, i64 0
  store ptr %48, ptr %6, align 8
  store i32 1, ptr %14, align 4
  br label %49

49:                                               ; preds = %45, %40, %23
  call void @llvm.lifetime.end.p0(i64 8, ptr %13) #6
  call void @llvm.lifetime.end.p0(i64 4, ptr %12) #6
  %50 = load ptr, ptr %6, align 8
  ret ptr %50
}

; Function Attrs: nounwind uwtable
define ptr @fdt_getprop(ptr noundef %0, i32 noundef %1, ptr noundef %2, ptr noundef %3) #0 {
  %5 = alloca ptr, align 8
  %6 = alloca i32, align 4
  %7 = alloca ptr, align 8
  %8 = alloca ptr, align 8
  store ptr %0, ptr %5, align 8, !tbaa !3
  store i32 %1, ptr %6, align 4, !tbaa !7
  store ptr %2, ptr %7, align 8, !tbaa !13
  store ptr %3, ptr %8, align 8, !tbaa !9
  %9 = load ptr, ptr %5, align 8, !tbaa !3
  %10 = load i32, ptr %6, align 4, !tbaa !7
  %11 = load ptr, ptr %7, align 8, !tbaa !13
  %12 = load ptr, ptr %7, align 8, !tbaa !13
  %13 = call i64 @strlen(ptr noundef %12) #7
  %14 = trunc i64 %13 to i32
  %15 = load ptr, ptr %8, align 8, !tbaa !9
  %16 = call ptr @fdt_getprop_namelen(ptr noundef %9, i32 noundef %10, ptr noundef %11, i32 noundef %14, ptr noundef %15)
  ret ptr %16
}

; Function Attrs: nounwind uwtable
define i32 @fdt_node_offset_by_prop_value(ptr noundef %0, i32 noundef %1, ptr noundef %2, ptr noundef %3, i32 noundef %4) #0 {
  %6 = alloca i32, align 4
  %7 = alloca ptr, align 8
  %8 = alloca i32, align 4
  %9 = alloca ptr, align 8
  %10 = alloca ptr, align 8
  %11 = alloca i32, align 4
  %12 = alloca i32, align 4
  %13 = alloca ptr, align 8
  %14 = alloca i32, align 4
  %15 = alloca i32, align 4
  %16 = alloca i32, align 4
  store ptr %0, ptr %7, align 8, !tbaa !3
  store i32 %1, ptr %8, align 4, !tbaa !7
  store ptr %2, ptr %9, align 8, !tbaa !13
  store ptr %3, ptr %10, align 8, !tbaa !3
  store i32 %4, ptr %11, align 4, !tbaa !7
  call void @llvm.lifetime.start.p0(i64 4, ptr %12) #6
  call void @llvm.lifetime.start.p0(i64 8, ptr %13) #6
  call void @llvm.lifetime.start.p0(i64 4, ptr %14) #6
  call void @llvm.lifetime.start.p0(i64 4, ptr %15) #6
  %17 = load ptr, ptr %7, align 8, !tbaa !3
  %18 = call i32 @fdt_ro_probe_(ptr noundef %17)
  store i32 %18, ptr %15, align 4, !tbaa !7
  %19 = icmp slt i32 %18, 0
  br i1 %19, label %20, label %22

20:                                               ; preds = %5
  %21 = load i32, ptr %15, align 4, !tbaa !7
  store i32 %21, ptr %6, align 4
  store i32 1, ptr %16, align 4
  br label %23

22:                                               ; preds = %5
  store i32 0, ptr %16, align 4
  br label %23

23:                                               ; preds = %22, %20
  call void @llvm.lifetime.end.p0(i64 4, ptr %15) #6
  %24 = load i32, ptr %16, align 4
  switch i32 %24, label %59 [
    i32 0, label %25
  ]

25:                                               ; preds = %23
  %26 = load ptr, ptr %7, align 8, !tbaa !3
  %27 = load i32, ptr %8, align 4, !tbaa !7
  %28 = call i32 @fdt_next_node(ptr noundef %26, i32 noundef %27, ptr noundef null)
  store i32 %28, ptr %12, align 4, !tbaa !7
  br label %29

29:                                               ; preds = %53, %25
  %30 = load i32, ptr %12, align 4, !tbaa !7
  %31 = icmp sge i32 %30, 0
  br i1 %31, label %32, label %57

32:                                               ; preds = %29
  %33 = load ptr, ptr %7, align 8, !tbaa !3
  %34 = load i32, ptr %12, align 4, !tbaa !7
  %35 = load ptr, ptr %9, align 8, !tbaa !13
  %36 = call ptr @fdt_getprop(ptr noundef %33, i32 noundef %34, ptr noundef %35, ptr noundef %14)
  store ptr %36, ptr %13, align 8, !tbaa !3
  %37 = load ptr, ptr %13, align 8, !tbaa !3
  %38 = icmp ne ptr %37, null
  br i1 %38, label %39, label %52

39:                                               ; preds = %32
  %40 = load i32, ptr %14, align 4, !tbaa !7
  %41 = load i32, ptr %11, align 4, !tbaa !7
  %42 = icmp eq i32 %40, %41
  br i1 %42, label %43, label %52

43:                                               ; preds = %39
  %44 = load ptr, ptr %13, align 8, !tbaa !3
  %45 = load ptr, ptr %10, align 8, !tbaa !3
  %46 = load i32, ptr %14, align 4, !tbaa !7
  %47 = sext i32 %46 to i64
  %48 = call i32 @memcmp(ptr noundef %44, ptr noundef %45, i64 noundef %47) #7
  %49 = icmp eq i32 %48, 0
  br i1 %49, label %50, label %52

50:                                               ; preds = %43
  %51 = load i32, ptr %12, align 4, !tbaa !7
  store i32 %51, ptr %6, align 4
  store i32 1, ptr %16, align 4
  br label %59

52:                                               ; preds = %43, %39, %32
  br label %53

53:                                               ; preds = %52
  %54 = load ptr, ptr %7, align 8, !tbaa !3
  %55 = load i32, ptr %12, align 4, !tbaa !7
  %56 = call i32 @fdt_next_node(ptr noundef %54, i32 noundef %55, ptr noundef null)
  store i32 %56, ptr %12, align 4, !tbaa !7
  br label %29, !llvm.loop !37

57:                                               ; preds = %29
  %58 = load i32, ptr %12, align 4, !tbaa !7
  store i32 %58, ptr %6, align 4
  store i32 1, ptr %16, align 4
  br label %59

59:                                               ; preds = %57, %50, %23
  call void @llvm.lifetime.end.p0(i64 4, ptr %14) #6
  call void @llvm.lifetime.end.p0(i64 8, ptr %13) #6
  call void @llvm.lifetime.end.p0(i64 4, ptr %12) #6
  %60 = load i32, ptr %6, align 4
  ret i32 %60
}