; Function Attrs: nounwind uwtable
define i32 @fdt_node_offset_by_prop_value(ptr noundef %0, i32 noundef %1, ptr noundef readonly captures(none) %2, ptr noundef readonly captures(none) %3, i32 noundef %4) local_unnamed_addr #0 {
  %6 = alloca i32, align 4
  %7 = alloca i32, align 4
  call void @llvm.lifetime.start.p0(i64 4, ptr nonnull %7) #9
  %8 = tail call i32 @fdt_ro_probe_(ptr noundef %0) #9
  %9 = icmp sgt i32 %8, -1
  br i1 %9, label %10, label %.loopexit

10:                                               ; preds = %5
  %11 = tail call i32 @fdt_next_node(ptr noundef %0, i32 noundef %1, ptr noundef null) #9
  %12 = icmp sgt i32 %11, -1
  br i1 %12, label %.lr.ph, label %.loopexit

.lr.ph:                                           ; preds = %10
  %13 = getelementptr inbounds nuw i8, ptr %0, i64 20
  %14 = getelementptr inbounds nuw i8, ptr %0, i64 21
  %15 = getelementptr inbounds nuw i8, ptr %0, i64 22
  %16 = getelementptr inbounds nuw i8, ptr %0, i64 23
  %17 = sext i32 %4 to i64
  br label %18

18:                                               ; preds = %.lr.ph, %68
  %.01824 = phi i32 [ %11, %.lr.ph ], [ %69, %68 ]
  %19 = call i64 @strlen(ptr noundef nonnull readonly dereferenceable(1) %2) #10
  %20 = trunc i64 %19 to i32
  call void @llvm.lifetime.start.p0(i64 4, ptr nonnull %6) #9
  %21 = call fastcc ptr @fdt_get_property_namelen_(ptr noundef %0, i32 noundef %.01824, ptr noundef nonnull readonly %2, i32 noundef %20, ptr noundef nonnull %7, ptr noundef nonnull %6)
  %.not.i.i = icmp eq ptr %21, null
  br i1 %.not.i.i, label %fdt_getprop.exit, label %22

22:                                               ; preds = %18
  %23 = load i8, ptr %13, align 1, !tbaa !3
  %24 = zext i8 %23 to i32
  %25 = shl nuw i32 %24, 24
  %26 = load i8, ptr %14, align 1, !tbaa !3
  %27 = zext i8 %26 to i32
  %28 = shl nuw nsw i32 %27, 16
  %29 = or disjoint i32 %28, %25
  %30 = load i8, ptr %15, align 1, !tbaa !3
  %31 = zext i8 %30 to i32
  %32 = shl nuw nsw i32 %31, 8
  %33 = or disjoint i32 %29, %32
  %34 = load i8, ptr %16, align 1, !tbaa !3
  %35 = zext i8 %34 to i32
  %36 = or disjoint i32 %33, %35
  %37 = icmp ult i32 %36, 16
  br i1 %37, label %38, label %61

38:                                               ; preds = %22
  %39 = load i32, ptr %6, align 4, !tbaa !6
  %40 = and i32 %39, 7
  %.not11.i.i = icmp eq i32 %40, 4
  br i1 %.not11.i.i, label %61, label %41

41:                                               ; preds = %38
  %42 = getelementptr inbounds nuw i8, ptr %21, i64 4
  %43 = load i8, ptr %42, align 1, !tbaa !3
  %44 = zext i8 %43 to i32
  %45 = shl nuw i32 %44, 24
  %46 = getelementptr inbounds nuw i8, ptr %21, i64 5
  %47 = load i8, ptr %46, align 1, !tbaa !3
  %48 = zext i8 %47 to i32
  %49 = shl nuw nsw i32 %48, 16
  %50 = or disjoint i32 %49, %45
  %51 = getelementptr inbounds nuw i8, ptr %21, i64 6
  %52 = load i8, ptr %51, align 1, !tbaa !3
  %53 = zext i8 %52 to i32
  %54 = shl nuw nsw i32 %53, 8
  %55 = or disjoint i32 %50, %54
  %56 = getelementptr inbounds nuw i8, ptr %21, i64 7
  %57 = load i8, ptr %56, align 1, !tbaa !3
  %58 = zext i8 %57 to i32
  %59 = or disjoint i32 %55, %58
  %60 = icmp ugt i32 %59, 7
  br i1 %60, label %62, label %61

61:                                               ; preds = %41, %38, %22
  br label %62

fdt_getprop.exit:                                 ; preds = %18
  call void @llvm.lifetime.end.p0(i64 4, ptr nonnull %6) #9
  br label %68

62:                                               ; preds = %41, %61
  %.sink = phi i64 [ 12, %61 ], [ 16, %41 ]
  call void @llvm.lifetime.end.p0(i64 4, ptr nonnull %6) #9
  %63 = load i32, ptr %7, align 4, !tbaa !6
  %64 = icmp eq i32 %63, %4
  br i1 %64, label %65, label %68

65:                                               ; preds = %62
  %66 = getelementptr inbounds nuw i8, ptr %21, i64 %.sink
  %bcmp = call i32 @bcmp(ptr nonnull %66, ptr %3, i64 %17)
  %67 = icmp eq i32 %bcmp, 0
  br i1 %67, label %.loopexit, label %68

68:                                               ; preds = %fdt_getprop.exit, %62, %65
  %69 = call i32 @fdt_next_node(ptr noundef %0, i32 noundef %.01824, ptr noundef null) #9
  %70 = icmp sgt i32 %69, -1
  br i1 %70, label %18, label %.loopexit, !llvm.loop !24

.loopexit:                                        ; preds = %65, %68, %10, %5
  %.1 = phi i32 [ %8, %5 ], [ %11, %10 ], [ %.01824, %65 ], [ %69, %68 ]
  call void @llvm.lifetime.end.p0(i64 4, ptr nonnull %7) #9
  ret i32 %.1
}